; Function Attrs: mustprogress nofree norecurse nosync nounwind memory(readwrite, inaccessiblemem: write) uwtable
define internal noundef nonnull ptr @_ZN6evmone8advanced12_GLOBAL__N_12opIXadL_ZNS0_5instr4implILNS_6OpcodeE30EXadL_ZNS_5instr4core3clzENS_8StackTopEEEEEvRNS0_22AdvancedExecutionStateEEEEEPKNS0_11InstructionESD_SA_(ptr noundef readnone captures(ret: address, provenance) %0, ptr noundef nonnull align 8 captures(none) dereferenceable(564) %1) #2 {
  %3 = getelementptr inbounds nuw i8, ptr %1, i64 552
  %.sroa.0.0.copyload.i = load ptr, ptr %3, align 8, !tbaa !57
  %4 = getelementptr inbounds i8, ptr %.sroa.0.0.copyload.i, i64 -32
  br label %5

5:                                                ; preds = %6, %2
  %.06.i.i.i.i = phi i64 [ 4, %2 ], [ %7, %6 ]
  %.not.i.i.i.i = icmp eq i64 %.06.i.i.i.i, 0
  br i1 %.not.i.i.i.i, label %_ZN6evmone8advanced5instr4implILNS_6OpcodeE30EXadL_ZNS_5instr4core3clzENS_8StackTopEEEEEvRNS0_22AdvancedExecutionStateE.exit, label %6

6:                                                ; preds = %5
  %7 = add nsw i64 %.06.i.i.i.i, -1
  %8 = getelementptr inbounds nuw i64, ptr %4, i64 %7
  %9 = load i64, ptr %8, align 8, !tbaa !59
  %.not8.i.i.i.i = icmp eq i64 %9, 0
  br i1 %.not8.i.i.i.i, label %5, label %_ZN4intx23count_significant_wordsILj256EEEjRKNS_4uintIXT_EEE.exit.i.i.i, !llvm.loop !109

_ZN4intx23count_significant_wordsILj256EEEjRKNS_4uintIXT_EEE.exit.i.i.i: ; preds = %6
  %10 = and i64 %.06.i.i.i.i, 4294967295
  %11 = icmp eq i64 %10, 0
  br i1 %11, label %_ZN6evmone8advanced5instr4implILNS_6OpcodeE30EXadL_ZNS_5instr4core3clzENS_8StackTopEEEEEvRNS0_22AdvancedExecutionStateE.exit, label %12

12:                                               ; preds = %_ZN4intx23count_significant_wordsILj256EEEjRKNS_4uintIXT_EEE.exit.i.i.i
  %13 = add i64 %.06.i.i.i.i, 4294967295
  %14 = and i64 %13, 4294967295
  %15 = getelementptr inbounds nuw i64, ptr %4, i64 %14
  %16 = load i64, ptr %15, align 8, !tbaa !59
  %17 = tail call range(i64 0, 65) i64 @llvm.ctlz.i64(i64 %16, i1 false)
  %18 = shl i64 %.06.i.i.i.i, 6
  %reass.sub = sub i64 %17, %18
  %19 = add i64 %reass.sub, 256
  %20 = and i64 %19, 4294967295
  br label %_ZN6evmone8advanced5instr4implILNS_6OpcodeE30EXadL_ZNS_5instr4core3clzENS_8StackTopEEEEEvRNS0_22AdvancedExecutionStateE.exit

_ZN6evmone8advanced5instr4implILNS_6OpcodeE30EXadL_ZNS_5instr4core3clzENS_8StackTopEEEEEvRNS0_22AdvancedExecutionStateE.exit: ; preds = %5, %_ZN4intx23count_significant_wordsILj256EEEjRKNS_4uintIXT_EEE.exit.i.i.i, %12
  %.0.i.i.i = phi i64 [ %20, %12 ], [ 256, %_ZN4intx23count_significant_wordsILj256EEEjRKNS_4uintIXT_EEE.exit.i.i.i ], [ 256, %5 ]
  store i64 %.0.i.i.i, ptr %4, align 8
  %.sroa.4.0..sroa_idx.i.i = getelementptr inbounds i8, ptr %.sroa.0.0.copyload.i, i64 -24
  tail call void @llvm.memset.p0.i64(ptr noundef nonnull align 8 dereferenceable(24) %.sroa.4.0..sroa_idx.i.i, i8 0, i64 24, i1 false)
  %21 = load ptr, ptr %3, align 8, !tbaa !67
  call void @llvm.assume(i1 true) [ "align"(ptr %21, i64 32) ]
  %22 = ptrtoint ptr %21 to i64
  store i64 %22, ptr %3, align 8, !tbaa !57
  %23 = getelementptr inbounds nuw i8, ptr %0, i64 16
  ret ptr %23
}